target datalayout = "e-m:e-p270:32:32-p271:32:32-p272:64:64-i64:64-i128:128-f80:128-n8:16:32:64-S128"
target triple = "x86_64-pc-linux-gnu"

@.str.4 = private unnamed_addr constant [2 x i8] c"\0A\00", align 1
@.str.5 = private unnamed_addr constant [40 x i8] c"    equiv_induct [options] [selection]\0A\00", align 1
@.str.6 = private unnamed_addr constant [61 x i8] c"Uses a version of temporal induction to prove $equiv cells.\0A\00", align 1
@.str.7 = private unnamed_addr constant [75 x i8] c"Only selected $equiv cells are proven and only selected cells are used to\0A\00", align 1
@.str.8 = private unnamed_addr constant [20 x i8] c"perform the proof.\0A\00", align 1
@.str.9 = private unnamed_addr constant [12 x i8] c"    -undef\0A\00", align 1
@.str.10 = private unnamed_addr constant [42 x i8] c"        enable modelling of undef states\0A\00", align 1
@.str.11 = private unnamed_addr constant [14 x i8] c"    -seq <N>\0A\00", align 1
@.str.12 = private unnamed_addr constant [70 x i8] c"        the max. number of time steps to be considered (default = 4)\0A\00", align 1
@.str.13 = private unnamed_addr constant [77 x i8] c"This command is very effective in proving complex sequential circuits, when\0A\00", align 1
@.str.14 = private unnamed_addr constant [71 x i8] c"the internal state of the circuit quickly propagates to $equiv cells.\0A\00", align 1
@.str.15 = private unnamed_addr constant [77 x i8] c"However, this command uses a weak definition of 'equivalence': This command\0A\00", align 1
@.str.16 = private unnamed_addr constant [72 x i8] c"proves that the two circuits will not diverge after they produce equal\0A\00", align 1
@.str.17 = private unnamed_addr constant [73 x i8] c"outputs (observable points via $equiv) for at least <N> cycles (the <N>\0A\00", align 1
@.str.18 = private unnamed_addr constant [22 x i8] c"specified via -seq).\0A\00", align 1
@.str.19 = private unnamed_addr constant [76 x i8] c"Combined with simulation this is very powerful because simulation can give\0A\00", align 1
@.str.20 = private unnamed_addr constant [75 x i8] c"you confidence that the circuits start out synced for at least <N> cycles\0A\00", align 1
@.str.21 = private unnamed_addr constant [14 x i8] c"after reset.\0A\00", align 1

; Function Attrs: mustprogress uwtable
define internal void @_ZN12_GLOBAL__N_115EquivInductPass4helpEv(ptr noundef nonnull align 8 dereferenceable(104) %0) unnamed_addr #4 align 2 {
  %2 = alloca ptr, align 8
  store ptr %0, ptr %2, align 8, !tbaa !6
  call void (ptr, ...) @_ZN5Yosys3logEPKcz(ptr noundef @.str.4)
  call void (ptr, ...) @_ZN5Yosys3logEPKcz(ptr noundef @.str.5)
  call void (ptr, ...) @_ZN5Yosys3logEPKcz(ptr noundef @.str.4)
  call void (ptr, ...) @_ZN5Yosys3logEPKcz(ptr noundef @.str.6)
  call void (ptr, ...) @_ZN5Yosys3logEPKcz(ptr noundef @.str.4)
  call void (ptr, ...) @_ZN5Yosys3logEPKcz(ptr noundef @.str.7)
  call void (ptr, ...) @_ZN5Yosys3logEPKcz(ptr noundef @.str.8)
  call void (ptr, ...) @_ZN5Yosys3logEPKcz(ptr noundef @.str.4)
  call void (ptr, ...) @_ZN5Yosys3logEPKcz(ptr noundef @.str.9)
  call void (ptr, ...) @_ZN5Yosys3logEPKcz(ptr noundef @.str.10)
  call void (ptr, ...) @_ZN5Yosys3logEPKcz(ptr noundef @.str.4)
  call void (ptr, ...) @_ZN5Yosys3logEPKcz(ptr noundef @.str.11)
  call void (ptr, ...) @_ZN5Yosys3logEPKcz(ptr noundef @.str.12)
  call void (ptr, ...) @_ZN5Yosys3logEPKcz(ptr noundef @.str.4)
  call void (ptr, ...) @_ZN5Yosys3logEPKcz(ptr noundef @.str.13)
  call void (ptr, ...) @_ZN5Yosys3logEPKcz(ptr noundef @.str.14)
  call void (ptr, ...) @_ZN5Yosys3logEPKcz(ptr noundef @.str.4)
  call void (ptr, ...) @_ZN5Yosys3logEPKcz(ptr noundef @.str.15)
  call void (ptr, ...) @_ZN5Yosys3logEPKcz(ptr noundef @.str.16)
  call void (ptr, ...) @_ZN5Yosys3logEPKcz(ptr noundef @.str.17)
  call void (ptr, ...) @_ZN5Yosys3logEPKcz(ptr noundef @.str.18)
  call void (ptr, ...) @_ZN5Yosys3logEPKcz(ptr noundef @.str.4)
  call void (ptr, ...) @_ZN5Yosys3logEPKcz(ptr noundef @.str.19)
  call void (ptr, ...) @_ZN5Yosys3logEPKcz(ptr noundef @.str.20)
  call void (ptr, ...) @_ZN5Yosys3logEPKcz(ptr noundef @.str.21)
  call void (ptr, ...) @_ZN5Yosys3logEPKcz(ptr noundef @.str.4)
  ret void
}